((lp0
F315.38
aF52.095
aF397.81750000000005
aF1510.4775
aF244.45
aF12.507499999999999
aF668.25
aF540.5
aF1090.5
aF2007.5
aF133.75
aF1887.5
aF1960.0
aF2515.0
aF982.5
aF2010.0
aF235.0
aF1825.0
aF172.25
aF508.0
aF2147.5
aF903.0
aF317.5
aF1085.25
aF2372.5
aF176.60000000000002
aF5.4425
aF240.05
aF1707.5
aF990.25
a(lp1
F1751.4175
aF179.74
aF255.47250000000003
aF729.8299999999999
aF256.3575
aF97.605
aF3122.5
aF336.985
aF1645.0
aF103.715
aF829.86
aF211.94499999999996
aF240.1225
aF229.91000000000003
aF1250.0
aF52.79249999999999
aF178.15749999999997
aF124.90249999999999
aF970.26
aF761.185
aF697.7349999999999
aF40.052499999999995
aF98.0975
aF250.96749999999997
aF1185.0
aF1092.0875
aF47.1775
aF137.885
aF253.62749999999997
aF1777.5
atp2
.